target datalayout = "e-m:e-p270:32:32-p271:32:32-p272:64:64-i64:64-i128:128-f80:128-n8:16:32:64-S128"
target triple = "x86_64-unknown-linux-gnu"

%struct.MemoryRegionOps = type { ptr, ptr, ptr, ptr, i32, %struct.anon.2, %struct.anon.3 }
%struct.anon.2 = type { i32, i32, i8, ptr }
%struct.anon.3 = type { i32, i32, i8 }
%struct.ShaktiUartState = type { %struct.SysBusDevice, %struct.MemoryRegion, i32, i32, i32, i32, i32, i32, i32, i32, i32, %struct.CharBackend }
%struct.SysBusDevice = type { %struct.DeviceState, i32, [32 x %struct.anon], i32, [32 x i32] }
%struct.DeviceState = type { %struct.Object, ptr, ptr, i8, i8, i64, ptr, i32, i8, ptr, %struct.NamedGPIOListHead, %struct.NamedClockListHead, %struct.BusStateHead, i32, i32, i32, %struct.ResettableState, ptr, %struct.MemReentrancyGuard }
%struct.Object = type { ptr, ptr, ptr, i32, ptr }
%struct.NamedGPIOListHead = type { ptr }
%struct.NamedClockListHead = type { ptr }
%struct.BusStateHead = type { ptr }
%struct.ResettableState = type { i32, i8, i8 }
%struct.MemReentrancyGuard = type { i8 }
%struct.anon = type { i64, ptr }
%struct.MemoryRegion = type { %struct.Object, i8, i8, i8, i8, i8, i8, i8, i8, i8, i8, ptr, ptr, ptr, ptr, ptr, ptr, i32, i128, i64, ptr, i64, i8, i8, i8, i8, i8, ptr, i64, i32, %union.anon, %union.anon.0, %union.anon.1, ptr, i32, ptr, ptr, i8 }
%union.anon = type { %struct.QTailQLink }
%struct.QTailQLink = type { ptr, ptr }
%union.anon.0 = type { %struct.QTailQLink }
%union.anon.1 = type { %struct.QTailQLink }
%struct.CharBackend = type { ptr, ptr, ptr, ptr, ptr, ptr, i32, i32 }

@.str = private unnamed_addr constant [12 x i8] c"shakti-uart\00", align 1
@.str.1 = private unnamed_addr constant [15 x i8] c"sys-bus-device\00", align 1
@.str.2 = private unnamed_addr constant [30 x i8] c"../qemu/hw/char/shakti_uart.c\00", align 1
@__func__.shakti_uart_instance_init = private unnamed_addr constant [26 x i8] c"shakti_uart_instance_init\00", align 1
@shakti_uart_ops = internal constant %struct.MemoryRegionOps { ptr @shakti_uart_read, ptr @shakti_uart_write, ptr null, ptr null, i32 0, %struct.anon.2 { i32 1, i32 4, i8 0, ptr null }, %struct.anon.3 { i32 1, i32 4, i8 0 } }, align 8
@.str.4 = private unnamed_addr constant [98 x i8] c"/home/dtcxzyw/WorkSpace/Projects/compilers/llvm-opt-benchmark/bench/qemu/qemu/include/hw/sysbus.h\00", align 1
@__func__.SYS_BUS_DEVICE = private unnamed_addr constant [15 x i8] c"SYS_BUS_DEVICE\00", align 1

; Function Attrs: nounwind sspstrong uwtable
define internal ptr @SYS_BUS_DEVICE(ptr noundef %obj) #0 {
entry:
  %obj.addr = alloca ptr, align 8
  store ptr %obj, ptr %obj.addr, align 8
  %0 = load ptr, ptr %obj.addr, align 8
  %call = call ptr @object_dynamic_cast_assert(ptr noundef %0, ptr noundef @.str.1, ptr noundef @.str.4, i32 noundef 20, ptr noundef @__func__.SYS_BUS_DEVICE)
  ret ptr %call
}

; Function Attrs: nounwind sspstrong uwtable
define internal void @shakti_uart_instance_init(ptr noundef %obj) #0 {
entry:
  %obj.addr = alloca ptr, align 8
  %sus = alloca ptr, align 8
  store ptr %obj, ptr %obj.addr, align 8
  %0 = load ptr, ptr %obj.addr, align 8
  %call = call ptr @object_dynamic_cast_assert(ptr noundef %0, ptr noundef @.str, ptr noundef @.str.2, i32 noundef 150, ptr noundef @__func__.shakti_uart_instance_init)
  store ptr %call, ptr %sus, align 8
  %1 = load ptr, ptr %sus, align 8
  %mmio = getelementptr inbounds %struct.ShaktiUartState, ptr %1, i32 0, i32 1
  %2 = load ptr, ptr %obj.addr, align 8
  %3 = load ptr, ptr %sus, align 8
  call void @memory_region_init_io(ptr noundef %mmio, ptr noundef %2, ptr noundef @shakti_uart_ops, ptr noundef %3, ptr noundef @.str, i64 noundef 4096)
  %4 = load ptr, ptr %obj.addr, align 8
  %call1 = call ptr @SYS_BUS_DEVICE(ptr noundef %4)
  %5 = load ptr, ptr %sus, align 8
  %mmio2 = getelementptr inbounds %struct.ShaktiUartState, ptr %5, i32 0, i32 1
  call void @sysbus_init_mmio(ptr noundef %call1, ptr noundef %mmio2)
  ret void
}