; Function Attrs: nounwind sspstrong uwtable
define internal void @shakti_uart_instance_init(ptr noundef %obj) #0 {
entry:
  %call = tail call ptr @object_dynamic_cast_assert(ptr noundef %obj, ptr noundef nonnull @.str, ptr noundef nonnull @.str.2, i32 noundef 150, ptr noundef nonnull @__func__.shakti_uart_instance_init) #6
  %mmio = getelementptr inbounds nuw i8, ptr %call, i64 816
  tail call void @memory_region_init_io(ptr noundef nonnull %mmio, ptr noundef %obj, ptr noundef nonnull @shakti_uart_ops, ptr noundef %call, ptr noundef nonnull @.str, i64 noundef 4096) #6
  %call.i = tail call ptr @object_dynamic_cast_assert(ptr noundef %obj, ptr noundef nonnull @.str.1, ptr noundef nonnull @.str.4, i32 noundef 20, ptr noundef nonnull @__func__.SYS_BUS_DEVICE) #6
  tail call void @sysbus_init_mmio(ptr noundef %call.i, ptr noundef nonnull %mmio) #6
  ret void
}